; Function Attrs: mustprogress uwtable
define internal void @_ZN2cv3hal12cpu_baseline12_GLOBAL__N_114cvtRGBtoYUV422ILi0ELi0ELi0ELi3EEEvPhmPKhmii(ptr noundef %0, i64 noundef %1, ptr noundef %2, i64 noundef %3, i32 noundef %4, i32 noundef %5) unnamed_addr #0 personality ptr @__gxx_personality_v0 {
  %7 = alloca %"struct.cv::hal::cpu_baseline::(anonymous namespace)::RGB8toYUV422Invoker", align 8
  %8 = alloca %"class.cv::Range", align 4
  store ptr getelementptr inbounds inrange(-16, 24) (i8, ptr @_ZTVN2cv3hal12cpu_baseline12_GLOBAL__N_119RGB8toYUV422InvokerILi0ELi0ELi0ELi3EEE, i64 16), ptr %7, align 8
  %9 = getelementptr inbounds i8, ptr %7, i64 8
  store ptr %0, ptr %9, align 8
  %10 = getelementptr inbounds i8, ptr %7, i64 16
  store i64 %1, ptr %10, align 8
  %11 = getelementptr inbounds i8, ptr %7, i64 24
  store ptr %2, ptr %11, align 8
  %12 = getelementptr inbounds i8, ptr %7, i64 32
  store i64 %3, ptr %12, align 8
  %13 = getelementptr inbounds i8, ptr %7, i64 40
  store i32 %4, ptr %13, align 8
  %14 = mul nsw i32 %5, %4
  %15 = icmp sgt i32 %14, 76799
  br i1 %15, label %16, label %20

16:                                               ; preds = %6
  store i32 0, ptr %8, align 4
  %17 = getelementptr inbounds i8, ptr %8, i64 4
  store i32 %5, ptr %17, align 4
  invoke void @_ZN2cv13parallel_for_ERKNS_5RangeERKNS_16ParallelLoopBodyEd(ptr noundef nonnull align 4 dereferenceable(8) %8, ptr noundef nonnull align 8 dereferenceable(8) %7, double noundef -1.000000e+00)
          to label %_ZNK2cv3hal12cpu_baseline12_GLOBAL__N_119RGB8toYUV422InvokerILi0ELi0ELi0ELi3EEclERKNS_5RangeE.exit unwind label %18

18:                                               ; preds = %16
  %19 = landingpad { ptr, i32 }
          cleanup
  call void @_ZN2cv16ParallelLoopBodyD2Ev(ptr noundef nonnull align 8 dereferenceable(8) %7) #12
  resume { ptr, i32 } %19

20:                                               ; preds = %6
  %21 = icmp sgt i32 %5, 0
  br i1 %21, label %.lr.ph44.i, label %_ZNK2cv3hal12cpu_baseline12_GLOBAL__N_119RGB8toYUV422InvokerILi0ELi0ELi0ELi3EEclERKNS_5RangeE.exit

.lr.ph44.i:                                       ; preds = %20
  %wide.trip.count.i = zext nneg i32 %5 to i64
  br label %22

22:                                               ; preds = %._crit_edge.i, %.lr.ph44.i
  %23 = phi i64 [ %3, %.lr.ph44.i ], [ %93, %._crit_edge.i ]
  %24 = phi i32 [ %4, %.lr.ph44.i ], [ %94, %._crit_edge.i ]
  %indvars.iv47.i = phi i64 [ 0, %.lr.ph44.i ], [ %indvars.iv.next48.i, %._crit_edge.i ]
  %.041.i = phi ptr [ %2, %.lr.ph44.i ], [ %95, %._crit_edge.i ]
  %.03342.i = getelementptr inbounds i8, ptr %.041.i, i64 3
  %25 = icmp sgt i32 %24, 0
  br i1 %25, label %.lr.ph.preheader.i, label %._crit_edge.i

.lr.ph.preheader.i:                               ; preds = %22
  %26 = load ptr, ptr %9, align 8
  %27 = load i64, ptr %10, align 8
  %28 = mul i64 %27, %indvars.iv47.i
  %29 = getelementptr inbounds i8, ptr %26, i64 %28
  br label %.lr.ph.i

.lr.ph.i:                                         ; preds = %.lr.ph.i, %.lr.ph.preheader.i
  %indvars.iv.i = phi i64 [ 0, %.lr.ph.preheader.i ], [ %indvars.iv.next.i, %.lr.ph.i ]
  %.03538.i = phi ptr [ %29, %.lr.ph.preheader.i ], [ %88, %.lr.ph.i ]
  %30 = add nuw nsw i64 %indvars.iv.i, 2
  %31 = getelementptr inbounds i8, ptr %.041.i, i64 %30
  %32 = load i8, ptr %31, align 1
  %33 = or disjoint i64 %indvars.iv.i, 1
  %34 = getelementptr inbounds i8, ptr %.041.i, i64 %33
  %35 = load i8, ptr %34, align 1
  %36 = getelementptr inbounds i8, ptr %.041.i, i64 %indvars.iv.i
  %37 = load i8, ptr %36, align 1
  %38 = getelementptr inbounds i8, ptr %.03342.i, i64 %30
  %39 = load i8, ptr %38, align 1
  %40 = getelementptr inbounds i8, ptr %.03342.i, i64 %33
  %41 = load i8, ptr %40, align 1
  %42 = getelementptr inbounds i8, ptr %.03342.i, i64 %indvars.iv.i
  %43 = load i8, ptr %42, align 1
  %44 = getelementptr inbounds i8, ptr %.03538.i, i64 1
  %45 = getelementptr inbounds i8, ptr %.03538.i, i64 3
  %46 = getelementptr inbounds i8, ptr %.03538.i, i64 2
  %47 = zext i8 %32 to i32
  %48 = mul nuw nsw i32 %47, 4211
  %49 = zext i8 %35 to i32
  %50 = mul nuw nsw i32 %49, 8258
  %51 = zext i8 %37 to i32
  %52 = mul nuw nsw i32 %51, 1606
  %53 = add nuw nsw i32 %48, 270336
  %54 = add nuw nsw i32 %53, %50
  %55 = add nuw nsw i32 %54, %52
  %56 = lshr i32 %55, 14
  %57 = trunc nuw i32 %56 to i8
  store i8 %57, ptr %.03538.i, align 1
  %58 = zext i8 %39 to i32
  %59 = mul nuw nsw i32 %58, 4211
  %60 = zext i8 %41 to i32
  %61 = mul nuw nsw i32 %60, 8258
  %62 = zext i8 %43 to i32
  %63 = mul nuw nsw i32 %62, 1606
  %64 = add nuw nsw i32 %59, 270336
  %65 = add nuw nsw i32 %64, %61
  %66 = add nuw nsw i32 %65, %63
  %67 = lshr i32 %66, 14
  %68 = trunc nuw i32 %67 to i8
  store i8 %68, ptr %46, align 1
  %69 = add nuw nsw i32 %58, %47
  %70 = add nuw nsw i32 %60, %49
  %71 = add nuw nsw i32 %62, %51
  %72 = mul nuw nsw i32 %69, 4193092
  %73 = mul nuw nsw i32 %70, 4191920
  %74 = mul nuw nsw i32 %71, 3596
  %75 = add nuw nsw i32 %72, 2105344
  %76 = add nuw i32 %75, %73
  %77 = add nuw i32 %76, %74
  %78 = lshr i32 %77, 14
  %79 = trunc i32 %78 to i8
  store i8 %79, ptr %44, align 1
  %80 = mul nuw nsw i32 %69, 3596
  %81 = mul nuw nsw i32 %70, 4191289
  %82 = mul nuw nsw i32 %71, 4193722
  %83 = add nuw nsw i32 %80, 2105344
  %84 = add nuw nsw i32 %83, %81
  %85 = add nuw i32 %84, %82
  %86 = lshr i32 %85, 14
  %87 = trunc i32 %86 to i8
  store i8 %87, ptr %45, align 1
  %indvars.iv.next.i = add nuw nsw i64 %indvars.iv.i, 6
  %88 = getelementptr inbounds i8, ptr %.03538.i, i64 4
  %89 = load i32, ptr %13, align 8
  %90 = mul nsw i32 %89, 3
  %91 = sext i32 %90 to i64
  %92 = icmp slt i64 %indvars.iv.next.i, %91
  br i1 %92, label %.lr.ph.i, label %._crit_edge.loopexit.i, !llvm.loop !9

._crit_edge.loopexit.i:                           ; preds = %.lr.ph.i
  %.pre50.i = load i64, ptr %12, align 8
  br label %._crit_edge.i

._crit_edge.i:                                    ; preds = %._crit_edge.loopexit.i, %22
  %93 = phi i64 [ %.pre50.i, %._crit_edge.loopexit.i ], [ %23, %22 ]
  %94 = phi i32 [ %89, %._crit_edge.loopexit.i ], [ %24, %22 ]
  %indvars.iv.next48.i = add nuw nsw i64 %indvars.iv47.i, 1
  %95 = getelementptr inbounds i8, ptr %.041.i, i64 %93
  %exitcond.not.i = icmp eq i64 %indvars.iv.next48.i, %wide.trip.count.i
  br i1 %exitcond.not.i, label %_ZNK2cv3hal12cpu_baseline12_GLOBAL__N_119RGB8toYUV422InvokerILi0ELi0ELi0ELi3EEclERKNS_5RangeE.exit, label %22, !llvm.loop !10

_ZNK2cv3hal12cpu_baseline12_GLOBAL__N_119RGB8toYUV422InvokerILi0ELi0ELi0ELi3EEclERKNS_5RangeE.exit: ; preds = %._crit_edge.i, %20, %16
  call void @_ZN2cv16ParallelLoopBodyD2Ev(ptr noundef nonnull align 8 dereferenceable(8) %7) #12
  ret void
}